target datalayout = "e-m:e-p270:32:32-p271:32:32-p272:64:64-i64:64-i128:128-f80:128-n8:16:32:64-S128"
target triple = "x86_64-pc-linux-gnu"

; Function Attrs: nounwind uwtable
define i32 @ff_socket_nonblock(i32 noundef %0, i32 noundef %1) #0 {
  %3 = alloca i32, align 4
  %4 = alloca i32, align 4
  %5 = alloca i32, align 4
  store i32 %0, ptr %4, align 4, !tbaa !4
  store i32 %1, ptr %5, align 4, !tbaa !4
  %6 = load i32, ptr %5, align 4, !tbaa !4
  %7 = icmp ne i32 %6, 0
  br i1 %7, label %8, label %14

8:                                                ; preds = %2
  %9 = load i32, ptr %4, align 4, !tbaa !4
  %10 = load i32, ptr %4, align 4, !tbaa !4
  %11 = call i32 (i32, i32, ...) @fcntl64(i32 noundef %10, i32 noundef 3)
  %12 = or i32 %11, 2048
  %13 = call i32 (i32, i32, ...) @fcntl64(i32 noundef %9, i32 noundef 4, i32 noundef %12)
  store i32 %13, ptr %3, align 4
  br label %20

14:                                               ; preds = %2
  %15 = load i32, ptr %4, align 4, !tbaa !4
  %16 = load i32, ptr %4, align 4, !tbaa !4
  %17 = call i32 (i32, i32, ...) @fcntl64(i32 noundef %16, i32 noundef 3)
  %18 = and i32 %17, -2049
  %19 = call i32 (i32, i32, ...) @fcntl64(i32 noundef %15, i32 noundef 4, i32 noundef %18)
  store i32 %19, ptr %3, align 4
  br label %20

20:                                               ; preds = %14, %8
  %21 = load i32, ptr %3, align 4
  ret i32 %21
}

declare i32 @fcntl64(i32 noundef, i32 noundef, ...) #1


!llvm.module.flags = !{!0, !1, !2, !3}

!0 = !{i32 1, !"wchar_size", i32 4}
!1 = !{i32 8, !"PIC Level", i32 2}
!2 = !{i32 7, !"uwtable", i32 2}
!3 = !{i32 1, !"override-stack-alignment", i32 16}
!4 = !{!5, !5, i64 0}
!5 = !{!"int", !6, i64 0}
!6 = !{!"omnipotent char", !7, i64 0}
!7 = !{!"Simple C/C++ TBAA"}
