; ModuleID = 'bench/ffmpeg/original/os_support.ll'
source_filename = "bench/ffmpeg/original/os_support.ll"
target datalayout = "e-m:e-p270:32:32-p271:32:32-p272:64:64-i64:64-i128:128-f80:128-n8:16:32:64-S128"
target triple = "x86_64-pc-linux-gnu"

; Function Attrs: nounwind uwtable
define i32 @ff_socket_nonblock(i32 noundef %0, i32 noundef %1) local_unnamed_addr #0 {
  %.not = icmp eq i32 %1, 0
  %3 = tail call i32 (i32, i32, ...) @fcntl64(i32 noundef %0, i32 noundef 3) #2
  %4 = and i32 %3, -2049
  %masksel = select i1 %.not, i32 0, i32 2048
  %.sink = or disjoint i32 %4, %masksel
  %5 = tail call i32 (i32, i32, ...) @fcntl64(i32 noundef %0, i32 noundef 4, i32 noundef %.sink) #2
  ret i32 %5
}

declare i32 @fcntl64(i32 noundef, i32 noundef, ...) local_unnamed_addr #1


!llvm.module.flags = !{!0, !1, !2, !3}

!0 = !{i32 1, !"wchar_size", i32 4}
!1 = !{i32 8, !"PIC Level", i32 2}
!2 = !{i32 7, !"uwtable", i32 2}
!3 = !{i32 1, !"override-stack-alignment", i32 16}
